; Function Attrs: mustprogress uwtable
define void @_ZN6icu_7512ChoiceFormatC2ERKNS_13UnicodeStringER11UParseErrorR10UErrorCode(ptr noundef nonnull align 8 dereferenceable(488) %this, ptr noundef nonnull align 8 dereferenceable(64) %newPattern, ptr noundef nonnull align 4 dereferenceable(72) %parseError, ptr noundef nonnull align 4 dereferenceable(4) %status) unnamed_addr #1 align 2 personality ptr @__gxx_personality_v0 {
entry:
  tail call void @_ZN6icu_7512NumberFormatC2Ev(ptr noundef nonnull align 8 dereferenceable(356) %this)
  store ptr getelementptr inbounds ({ [49 x ptr] }, ptr @_ZTVN6icu_7512ChoiceFormatE, i64 0, i32 0, i64 2), ptr %this, align 8
  %constructorErrorCode = getelementptr inbounds i8, ptr %this, i64 356
  %0 = load i32, ptr %status, align 4
  store i32 %0, ptr %constructorErrorCode, align 4
  %msgPattern = getelementptr inbounds i8, ptr %this, i64 360
  invoke void @_ZN6icu_7514MessagePatternC1ER10UErrorCode(ptr noundef nonnull align 8 dereferenceable(127) %msgPattern, ptr noundef nonnull align 4 dereferenceable(4) %status)
          to label %invoke.cont unwind label %lpad

invoke.cont:                                      ; preds = %entry
  %vtable = load ptr, ptr %this, align 8
  %vfn = getelementptr inbounds i8, ptr %vtable, i64 304
  %1 = load ptr, ptr %vfn, align 8
  invoke void %1(ptr noundef nonnull align 8 dereferenceable(488) %this, ptr noundef nonnull align 8 dereferenceable(64) %newPattern, ptr noundef nonnull align 4 dereferenceable(72) %parseError, ptr noundef nonnull align 4 dereferenceable(4) %status)
          to label %invoke.cont3 unwind label %lpad2

invoke.cont3:                                     ; preds = %invoke.cont
  ret void

lpad:                                             ; preds = %entry
  %2 = landingpad { ptr, i32 }
          cleanup
  br label %ehcleanup

lpad2:                                            ; preds = %invoke.cont
  %3 = landingpad { ptr, i32 }
          cleanup
  tail call void @_ZN6icu_7514MessagePatternD1Ev(ptr noundef nonnull align 8 dereferenceable(127) %msgPattern) #9
  br label %ehcleanup

ehcleanup:                                        ; preds = %lpad2, %lpad
  %.pn = phi { ptr, i32 } [ %3, %lpad2 ], [ %2, %lpad ]
  tail call void @_ZN6icu_7512NumberFormatD2Ev(ptr noundef nonnull align 8 dereferenceable(356) %this) #9
  resume { ptr, i32 } %.pn
}